(dp0
S'show_imports'
p1
I0
sS'prj_name'
p2
S''
p3
sS'docformat'
p4
S'epytext'
p5
sS'inheritance'
p6
S'grouped'
p7
sS'help'
p8
NsS'modules'
p9
(S'/home/zoltan/development/visexpman/__init__.py'
p10
S'/home/zoltan/development/visexpman/engine/__init__.py'
p11
S'/home/zoltan/development/visexpman/engine/generic/__init__.py'
p12
S'/home/zoltan/development/visexpman/engine/generic/configuration.py'
p13
S'/home/zoltan/development/visexpman/engine/generic/graphics.py'
p14
S'/home/zoltan/development/visexpman/engine/generic/introspect.py'
p15
S'/home/zoltan/development/visexpman/engine/generic/parameter.py'
p16
S'/home/zoltan/development/visexpman/engine/generic/parametric_control.py'
p17
S'/home/zoltan/development/visexpman/engine/generic/utils.py'
p18
S'/home/zoltan/development/visexpman/engine/hardware_interface/__init__.py'
p19
S'/home/zoltan/development/visexpman/engine/hardware_interface/daq_instrument.py'
p20
S'/home/zoltan/development/visexpman/engine/hardware_interface/instrument.py'
p21
S'/home/zoltan/development/visexpman/engine/hardware_interface/motor_control.py'
p22
S'/home/zoltan/development/visexpman/engine/hardware_interface/network_interface.py'
p23
S'/home/zoltan/development/visexpman/engine/hardware_interface/udp_interface.py'
p24
S'/home/zoltan/development/visexpman/engine/visexp_runner.py'
p25
S'/home/zoltan/development/visexpman/engine/visexpman_gui.py'
p26
S'/home/zoltan/development/visexpman/engine/visual_stimulation/__init__.py'
p27
S'/home/zoltan/development/visexpman/engine/visual_stimulation/command_handler.py'
p28
S'/home/zoltan/development/visexpman/engine/visual_stimulation/configuration.py'
p29
S'/home/zoltan/development/visexpman/engine/visual_stimulation/experiment.py'
p30
S'/home/zoltan/development/visexpman/engine/visual_stimulation/stimulation_control.py'
p31
S'/home/zoltan/development/visexpman/engine/visual_stimulation/stimulation_library.py'
p32
S'/home/zoltan/development/visexpman/engine/visual_stimulation/user_interface.py'
p33
S'/home/zoltan/development/visexpman/users/__init__.py'
p34
S'/home/zoltan/development/visexpman/users/daniel/configurations.py'
p35
S'/home/zoltan/development/visexpman/users/daniel/moving_dot.py'
p36
S'/home/zoltan/development/visexpman/users/default/__init__.py'
p37
S'/home/zoltan/development/visexpman/users/default/default_configs.py'
p38
S'/home/zoltan/development/visexpman/users/templateuser/presentinator_experiment.py'
p39
S'/home/zoltan/development/visexpman/users/zoltan/automated_test_data.py'
p40
S'/home/zoltan/development/visexpman/users/zoltan/machine_configs.py'
p41
S'/home/zoltan/development/visexpman/users/zoltan/test/remote_interface_tester.py'
p42
S'/home/zoltan/development/visexpman/users/zoltan/test/unit_test_runner.py'
p43
S'/home/zoltan/development/visexpman/users/zoltan/test_data.py'
p44
tp45
sS'private'
p46
I1
sS'prj_url'
p47
NsS'introspect_or_parse'
p48
S'both'
p49
sS'frames'
p50
I1
sS'css'
p51
S'default'
p52
sS'target'
p53
S'/home/zoltan/development/doc_visexpman'
p54
s.