(dp0
S'show_imports'
p1
I0
sS'prj_name'
p2
S''
p3
sS'docformat'
p4
S'epytext'
p5
sS'inheritance'
p6
S'grouped'
p7
sS'help'
p8
NsS'modules'
p9
(S'/home/zoltan/development/visexpman/__init__.py'
p10
S'/home/zoltan/development/visexpman/engine/__init__.py'
p11
S'/home/zoltan/development/visexpman/engine/generic/configuration.py'
p12
S'/home/zoltan/development/visexpman/engine/generic/parameter.py'
p13
S'/home/zoltan/development/visexpman/engine/generic/utils.py'
p14
S'/home/zoltan/development/visexpman/engine/hardware_interface/instrument.py'
p15
S'/home/zoltan/development/visexpman/engine/hardware_interface/network_interface.py'
p16
S'/home/zoltan/development/visexpman/engine/visexp_runner.py'
p17
S'/home/zoltan/development/visexpman/engine/visual_stimulation/command_handler.py'
p18
S'/home/zoltan/development/visexpman/engine/visual_stimulation/configuration.py'
p19
S'/home/zoltan/development/visexpman/engine/visual_stimulation/experiment.py'
p20
S'/home/zoltan/development/visexpman/engine/visual_stimulation/stimulation_control.py'
p21
S'/home/zoltan/development/visexpman/engine/visual_stimulation/stimulation_library.py'
p22
S'/home/zoltan/development/visexpman/engine/visual_stimulation/user_interface.py'
p23
S'/home/zoltan/development/visexpman/users/daniel/moving_dot.py'
p24
S'/home/zoltan/development/visexpman/users/daniel/configurations.py'
p25
S'/home/zoltan/development/visexpman/users/zoltan/automated_test_data.py'
p26
S'/home/zoltan/development/visexpman/users/zoltan/test/unit_test_runner.py'
p27
tp28
sS'private'
p29
I1
sS'prj_url'
p30
NsS'introspect_or_parse'
p31
S'both'
p32
sS'frames'
p33
I1
sS'css'
p34
S'default'
p35
sS'target'
p36
S'/home/zoltan/development/visexpman/doc'
p37
s.